target datalayout = "e-m:e-p270:32:32-p271:32:32-p272:64:64-i64:64-i128:128-f80:128-n8:16:32:64-S128"
target triple = "x86_64-pc-linux-gnu"

%struct.pmix_list_t = type { %struct.pmix_object_t, %struct.pmix_list_item_t, i64 }
%struct.pmix_object_t = type { %union.pthread_mutex_t, ptr, i32, %struct.pmix_tma }
%union.pthread_mutex_t = type { %struct.__pthread_mutex_s }
%struct.__pthread_mutex_s = type { i32, i32, i32, i32, i32, i16, i16, %struct.__pthread_internal_list }
%struct.__pthread_internal_list = type { ptr, ptr }
%struct.pmix_tma = type { ptr, ptr, ptr, ptr, ptr, ptr, ptr, ptr }
%struct.pmix_list_item_t = type { %struct.pmix_object_t, ptr, ptr, i32 }
%struct.pmix_proc = type { [256 x i8], i32 }
%struct.prte_job_t = type { %struct.pmix_list_item_t, i32, ptr, ptr, [256 x i8], ptr, i32, i32, ptr, ptr, i32, i32, i32, i32, ptr, ptr, ptr, i32, i32, i32, i32, i32, i32, i32, %struct.pmix_proc, i32, i16, %struct.pmix_list_t, %struct.pmix_data_buffer, %struct.pmix_list_t, [256 x i8], i32, ptr, %struct.pmix_cli_result_t }
%struct.pmix_data_buffer = type { ptr, ptr, ptr, i64, i64 }
%struct.pmix_cli_result_t = type { %struct.pmix_object_t, %struct.pmix_list_t, ptr }
%struct.prte_topology_t = type { %struct.pmix_object_t, i32, ptr, ptr }
%struct.hwloc_obj = type { i32, ptr, i32, ptr, i64, ptr, i32, i32, ptr, ptr, ptr, i32, ptr, ptr, i32, ptr, ptr, ptr, i32, i32, ptr, i32, ptr, i32, ptr, ptr, ptr, ptr, ptr, ptr, i32, ptr, i64 }

@.str.13 = private unnamed_addr constant [5 x i8] c"NONE\00", align 1
@prte_clean_output = external global i32, align 4
@prte_hwloc_default_use_hwthread_cpus = external global i8, align 1
@.str.42 = private unnamed_addr constant [21 x i8] c"<processors node=%s>\00", align 1
@.str.43 = private unnamed_addr constant [85 x i8] c"\0A======================   AVAILABLE PROCESSORS [node: %s]   ======================\0A\0A\00", align 1
@.str.44 = private unnamed_addr constant [21 x i8] c"    <pkg=%d cpus=%s>\00", align 1
@.str.45 = private unnamed_addr constant [14 x i8] c"PKG[%d]: NONE\00", align 1
@.str.46 = private unnamed_addr constant [12 x i8] c"PKG[%d]: %s\00", align 1
@.str.47 = private unnamed_addr constant [15 x i8] c"</processors>\0A\00", align 1
@.str.48 = private unnamed_addr constant [73 x i8] c"\0A======================================================================\0A\00", align 1

; Function Attrs: nounwind uwtable
define internal void @display_cpus(ptr noundef %0, ptr noundef %1, ptr noundef %2) #0 {
  %4 = alloca ptr, align 8
  %5 = alloca ptr, align 8
  %6 = alloca ptr, align 8
  %7 = alloca [2048 x i8], align 16
  %8 = alloca i32, align 4
  %9 = alloca i32, align 4
  %10 = alloca i8, align 1
  %11 = alloca i8, align 1
  %12 = alloca i32, align 4
  %13 = alloca i32, align 4
  %14 = alloca ptr, align 8
  %15 = alloca ptr, align 8
  %16 = alloca ptr, align 8
  %17 = alloca ptr, align 8
  %18 = alloca i8, align 1
  %19 = alloca i32, align 4
  store ptr %0, ptr %4, align 8, !tbaa !3
  store ptr %1, ptr %5, align 8, !tbaa !3
  store ptr %2, ptr %6, align 8, !tbaa !24
  call void @llvm.lifetime.start.p0(i64 2048, ptr %7) #12
  call void @llvm.lifetime.start.p0(i64 4, ptr %8) #12
  call void @llvm.lifetime.start.p0(i64 4, ptr %9) #12
  call void @llvm.lifetime.start.p0(i64 1, ptr %10) #12
  store i8 0, ptr %10, align 1, !tbaa !25
  call void @llvm.lifetime.start.p0(i64 1, ptr %11) #12
  %20 = load i8, ptr @prte_hwloc_default_use_hwthread_cpus, align 1, !tbaa !25, !range !27, !noundef !28
  %21 = trunc i8 %20 to i1
  %22 = zext i1 %21 to i8
  store i8 %22, ptr %11, align 1, !tbaa !25
  call void @llvm.lifetime.start.p0(i64 4, ptr %12) #12
  call void @llvm.lifetime.start.p0(i64 4, ptr %13) #12
  call void @llvm.lifetime.start.p0(i64 8, ptr %14) #12
  call void @llvm.lifetime.start.p0(i64 8, ptr %15) #12
  store ptr null, ptr %15, align 8, !tbaa !48
  call void @llvm.lifetime.start.p0(i64 8, ptr %16) #12
  call void @llvm.lifetime.start.p0(i64 8, ptr %17) #12
  store ptr null, ptr %17, align 8, !tbaa !48
  call void @llvm.lifetime.start.p0(i64 1, ptr %18) #12
  %23 = load ptr, ptr %5, align 8, !tbaa !3
  %24 = getelementptr inbounds nuw %struct.prte_job_t, ptr %23, i32 0, i32 27
  %25 = call zeroext i1 @prte_get_attribute(ptr noundef %24, i16 noundef zeroext 310, ptr noundef null, i16 noundef zeroext 1)
  %26 = zext i1 %25 to i8
  store i8 %26, ptr %18, align 1, !tbaa !25
  %27 = load i8, ptr %18, align 1, !tbaa !25, !range !27, !noundef !28
  %28 = trunc i8 %27 to i1
  br i1 %28, label %29, label %30

29:                                               ; preds = %3
  store i32 1, ptr %19, align 4
  br label %189

30:                                               ; preds = %3
  %31 = load ptr, ptr %4, align 8, !tbaa !3
  %32 = getelementptr inbounds nuw %struct.prte_topology_t, ptr %31, i32 0, i32 2
  %33 = load ptr, ptr %32, align 8, !tbaa !49
  %34 = call i32 @prte_hwloc_base_get_nbobjs_by_type(ptr noundef %33, i32 noundef 3)
  store i32 %34, ptr %12, align 4, !tbaa !29
  %35 = load ptr, ptr %4, align 8, !tbaa !3
  %36 = getelementptr inbounds nuw %struct.prte_topology_t, ptr %35, i32 0, i32 2
  %37 = load ptr, ptr %36, align 8, !tbaa !49
  %38 = call i32 @prte_hwloc_base_get_nbobjs_by_type(ptr noundef %37, i32 noundef 2)
  store i32 %38, ptr %13, align 4, !tbaa !29
  %39 = load i32, ptr %12, align 4, !tbaa !29
  %40 = load i32, ptr %13, align 4, !tbaa !29
  %41 = icmp eq i32 %39, %40
  br i1 %41, label %42, label %46

42:                                               ; preds = %30
  %43 = load i8, ptr %11, align 1, !tbaa !25, !range !27, !noundef !28
  %44 = trunc i8 %43 to i1
  br i1 %44, label %46, label %45

45:                                               ; preds = %42
  store i8 1, ptr %10, align 1, !tbaa !25
  br label %46

46:                                               ; preds = %45, %42, %30
  %47 = load ptr, ptr %5, align 8, !tbaa !3
  %48 = getelementptr inbounds nuw %struct.prte_job_t, ptr %47, i32 0, i32 27
  %49 = call zeroext i1 @prte_get_attribute(ptr noundef %48, i16 noundef zeroext 279, ptr noundef null, i16 noundef zeroext 1)
  %50 = zext i1 %49 to i8
  store i8 %50, ptr %11, align 1, !tbaa !25
  %51 = load i8, ptr %11, align 1, !tbaa !25, !range !27, !noundef !28
  %52 = trunc i8 %51 to i1
  br i1 %52, label %58, label %53

53:                                               ; preds = %46
  %54 = load i8, ptr %10, align 1, !tbaa !25, !range !27, !noundef !28
  %55 = trunc i8 %54 to i1
  br i1 %55, label %58, label %56

56:                                               ; preds = %53
  %57 = call noalias ptr @hwloc_bitmap_alloc()
  store ptr %57, ptr %17, align 8, !tbaa !48
  br label %58

58:                                               ; preds = %56, %53, %46
  %59 = call noalias ptr @hwloc_bitmap_alloc()
  store ptr %59, ptr %15, align 8, !tbaa !48
  %60 = load i8, ptr %18, align 1, !tbaa !25, !range !27, !noundef !28
  %61 = trunc i8 %60 to i1
  br i1 %61, label %62, label %65

62:                                               ; preds = %58
  %63 = load i32, ptr @prte_clean_output, align 4, !tbaa !29
  %64 = load ptr, ptr %6, align 8, !tbaa !24
  call void (i32, ptr, ...) @pmix_output(i32 noundef %63, ptr noundef @.str.42, ptr noundef %64)
  br label %68

65:                                               ; preds = %58
  %66 = load i32, ptr @prte_clean_output, align 4, !tbaa !29
  %67 = load ptr, ptr %6, align 8, !tbaa !24
  call void (i32, ptr, ...) @pmix_output(i32 noundef %66, ptr noundef @.str.43, ptr noundef %67)
  br label %68

68:                                               ; preds = %65, %62
  %69 = load ptr, ptr %4, align 8, !tbaa !3
  %70 = getelementptr inbounds nuw %struct.prte_topology_t, ptr %69, i32 0, i32 2
  %71 = load ptr, ptr %70, align 8, !tbaa !49
  %72 = call i32 @prte_hwloc_base_get_nbobjs_by_type(ptr noundef %71, i32 noundef 1)
  store i32 %72, ptr %9, align 4, !tbaa !29
  %73 = load ptr, ptr %4, align 8, !tbaa !3
  %74 = getelementptr inbounds nuw %struct.prte_topology_t, ptr %73, i32 0, i32 2
  %75 = load ptr, ptr %74, align 8, !tbaa !49
  %76 = call ptr @hwloc_topology_get_allowed_cpuset(ptr noundef %75) #13
  store ptr %76, ptr %16, align 8, !tbaa !48
  store i32 0, ptr %8, align 4, !tbaa !29
  br label %77

77:                                               ; preds = %172, %68
  %78 = load i32, ptr %8, align 4, !tbaa !29
  %79 = load i32, ptr %9, align 4, !tbaa !29
  %80 = icmp ult i32 %78, %79
  br i1 %80, label %81, label %175

81:                                               ; preds = %77
  %82 = load ptr, ptr %4, align 8, !tbaa !3
  %83 = getelementptr inbounds nuw %struct.prte_topology_t, ptr %82, i32 0, i32 2
  %84 = load ptr, ptr %83, align 8, !tbaa !49
  %85 = load i32, ptr %8, align 4, !tbaa !29
  %86 = call ptr @prte_hwloc_base_get_obj_by_type(ptr noundef %84, i32 noundef 1, i32 noundef %85)
  store ptr %86, ptr %14, align 8, !tbaa !52
  %87 = load ptr, ptr %15, align 8, !tbaa !48
  %88 = load ptr, ptr %14, align 8, !tbaa !52
  %89 = getelementptr inbounds nuw %struct.hwloc_obj, ptr %88, i32 0, i32 25
  %90 = load ptr, ptr %89, align 8, !tbaa !54
  %91 = load ptr, ptr %16, align 8, !tbaa !48
  %92 = call i32 @hwloc_bitmap_and(ptr noundef %87, ptr noundef %90, ptr noundef %91)
  %93 = load ptr, ptr %15, align 8, !tbaa !48
  %94 = call i32 @hwloc_bitmap_iszero(ptr noundef %93) #13
  %95 = icmp ne i32 %94, 0
  br i1 %95, label %96, label %106

96:                                               ; preds = %81
  %97 = load i8, ptr %18, align 1, !tbaa !25, !range !27, !noundef !28
  %98 = trunc i8 %97 to i1
  br i1 %98, label %99, label %102

99:                                               ; preds = %96
  %100 = load i32, ptr @prte_clean_output, align 4, !tbaa !29
  %101 = load i32, ptr %8, align 4, !tbaa !29
  call void (i32, ptr, ...) @pmix_output(i32 noundef %100, ptr noundef @.str.44, i32 noundef %101, ptr noundef @.str.13)
  br label %105

102:                                              ; preds = %96
  %103 = load i32, ptr @prte_clean_output, align 4, !tbaa !29
  %104 = load i32, ptr %8, align 4, !tbaa !29
  call void (i32, ptr, ...) @pmix_output(i32 noundef %103, ptr noundef @.str.45, i32 noundef %104)
  br label %105

105:                                              ; preds = %102, %99
  br label %172

106:                                              ; preds = %81
  %107 = load i8, ptr %10, align 1, !tbaa !25, !range !27, !noundef !28
  %108 = trunc i8 %107 to i1
  br i1 %108, label %109, label %124

109:                                              ; preds = %106
  %110 = getelementptr inbounds [2048 x i8], ptr %7, i64 0, i64 0
  %111 = load ptr, ptr %15, align 8, !tbaa !48
  %112 = call i32 @hwloc_bitmap_list_snprintf(ptr noundef %110, i64 noundef 2048, ptr noundef %111)
  %113 = load i8, ptr %18, align 1, !tbaa !25, !range !27, !noundef !28
  %114 = trunc i8 %113 to i1
  br i1 %114, label %115, label %119

115:                                              ; preds = %109
  %116 = load i32, ptr @prte_clean_output, align 4, !tbaa !29
  %117 = load i32, ptr %8, align 4, !tbaa !29
  %118 = getelementptr inbounds [2048 x i8], ptr %7, i64 0, i64 0
  call void (i32, ptr, ...) @pmix_output(i32 noundef %116, ptr noundef @.str.44, i32 noundef %117, ptr noundef %118)
  br label %123

119:                                              ; preds = %109
  %120 = load i32, ptr @prte_clean_output, align 4, !tbaa !29
  %121 = load i32, ptr %8, align 4, !tbaa !29
  %122 = getelementptr inbounds [2048 x i8], ptr %7, i64 0, i64 0
  call void (i32, ptr, ...) @pmix_output(i32 noundef %120, ptr noundef @.str.46, i32 noundef %121, ptr noundef %122)
  br label %123

123:                                              ; preds = %119, %115
  br label %171

124:                                              ; preds = %106
  %125 = load i8, ptr %11, align 1, !tbaa !25, !range !27, !noundef !28
  %126 = trunc i8 %125 to i1
  br i1 %126, label %127, label %142

127:                                              ; preds = %124
  %128 = getelementptr inbounds [2048 x i8], ptr %7, i64 0, i64 0
  %129 = load ptr, ptr %15, align 8, !tbaa !48
  %130 = call i32 @hwloc_bitmap_list_snprintf(ptr noundef %128, i64 noundef 2048, ptr noundef %129)
  %131 = load i8, ptr %18, align 1, !tbaa !25, !range !27, !noundef !28
  %132 = trunc i8 %131 to i1
  br i1 %132, label %133, label %137

133:                                              ; preds = %127
  %134 = load i32, ptr @prte_clean_output, align 4, !tbaa !29
  %135 = load i32, ptr %8, align 4, !tbaa !29
  %136 = getelementptr inbounds [2048 x i8], ptr %7, i64 0, i64 0
  call void (i32, ptr, ...) @pmix_output(i32 noundef %134, ptr noundef @.str.44, i32 noundef %135, ptr noundef %136)
  br label %141

137:                                              ; preds = %127
  %138 = load i32, ptr @prte_clean_output, align 4, !tbaa !29
  %139 = load i32, ptr %8, align 4, !tbaa !29
  %140 = getelementptr inbounds [2048 x i8], ptr %7, i64 0, i64 0
  call void (i32, ptr, ...) @pmix_output(i32 noundef %138, ptr noundef @.str.46, i32 noundef %139, ptr noundef %140)
  br label %141

141:                                              ; preds = %137, %133
  br label %170

142:                                              ; preds = %124
  %143 = load ptr, ptr %4, align 8, !tbaa !3
  %144 = getelementptr inbounds nuw %struct.prte_topology_t, ptr %143, i32 0, i32 2
  %145 = load ptr, ptr %144, align 8, !tbaa !49
  %146 = load ptr, ptr %15, align 8, !tbaa !48
  %147 = load i8, ptr %11, align 1, !tbaa !25, !range !27, !noundef !28
  %148 = trunc i8 %147 to i1
  %149 = zext i1 %148 to i32
  %150 = load i8, ptr %10, align 1, !tbaa !25, !range !27, !noundef !28
  %151 = trunc i8 %150 to i1
  %152 = zext i1 %151 to i32
  %153 = or i32 %149, %152
  %154 = icmp ne i32 %153, 0
  %155 = load ptr, ptr %17, align 8, !tbaa !48
  call void @prte_hwloc_build_map(ptr noundef %145, ptr noundef %146, i1 noundef zeroext %154, ptr noundef %155)
  %156 = getelementptr inbounds [2048 x i8], ptr %7, i64 0, i64 0
  %157 = load ptr, ptr %17, align 8, !tbaa !48
  %158 = call i32 @hwloc_bitmap_list_snprintf(ptr noundef %156, i64 noundef 2048, ptr noundef %157)
  %159 = load i8, ptr %18, align 1, !tbaa !25, !range !27, !noundef !28
  %160 = trunc i8 %159 to i1
  br i1 %160, label %161, label %165

161:                                              ; preds = %142
  %162 = load i32, ptr @prte_clean_output, align 4, !tbaa !29
  %163 = load i32, ptr %8, align 4, !tbaa !29
  %164 = getelementptr inbounds [2048 x i8], ptr %7, i64 0, i64 0
  call void (i32, ptr, ...) @pmix_output(i32 noundef %162, ptr noundef @.str.44, i32 noundef %163, ptr noundef %164)
  br label %169

165:                                              ; preds = %142
  %166 = load i32, ptr @prte_clean_output, align 4, !tbaa !29
  %167 = load i32, ptr %8, align 4, !tbaa !29
  %168 = getelementptr inbounds [2048 x i8], ptr %7, i64 0, i64 0
  call void (i32, ptr, ...) @pmix_output(i32 noundef %166, ptr noundef @.str.46, i32 noundef %167, ptr noundef %168)
  br label %169

169:                                              ; preds = %165, %161
  br label %170

170:                                              ; preds = %169, %141
  br label %171

171:                                              ; preds = %170, %123
  br label %172

172:                                              ; preds = %171, %105
  %173 = load i32, ptr %8, align 4, !tbaa !29
  %174 = add i32 %173, 1
  store i32 %174, ptr %8, align 4, !tbaa !29
  br label %77, !llvm.loop !59

175:                                              ; preds = %77
  %176 = load ptr, ptr %15, align 8, !tbaa !48
  call void @hwloc_bitmap_free(ptr noundef %176)
  %177 = load ptr, ptr %17, align 8, !tbaa !48
  %178 = icmp ne ptr null, %177
  br i1 %178, label %179, label %181

179:                                              ; preds = %175
  %180 = load ptr, ptr %17, align 8, !tbaa !48
  call void @hwloc_bitmap_free(ptr noundef %180)
  br label %181

181:                                              ; preds = %179, %175
  %182 = load i8, ptr %18, align 1, !tbaa !25, !range !27, !noundef !28
  %183 = trunc i8 %182 to i1
  br i1 %183, label %184, label %186

184:                                              ; preds = %181
  %185 = load i32, ptr @prte_clean_output, align 4, !tbaa !29
  call void (i32, ptr, ...) @pmix_output(i32 noundef %185, ptr noundef @.str.47)
  br label %188

186:                                              ; preds = %181
  %187 = load i32, ptr @prte_clean_output, align 4, !tbaa !29
  call void (i32, ptr, ...) @pmix_output(i32 noundef %187, ptr noundef @.str.48)
  br label %188

188:                                              ; preds = %186, %184
  store i32 1, ptr %19, align 4
  br label %189

189:                                              ; preds = %188, %29
  call void @llvm.lifetime.end.p0(i64 1, ptr %18) #12
  call void @llvm.lifetime.end.p0(i64 8, ptr %17) #12
  call void @llvm.lifetime.end.p0(i64 8, ptr %16) #12
  call void @llvm.lifetime.end.p0(i64 8, ptr %15) #12
  call void @llvm.lifetime.end.p0(i64 8, ptr %14) #12
  call void @llvm.lifetime.end.p0(i64 4, ptr %13) #12
  call void @llvm.lifetime.end.p0(i64 4, ptr %12) #12
  call void @llvm.lifetime.end.p0(i64 1, ptr %11) #12
  call void @llvm.lifetime.end.p0(i64 1, ptr %10) #12
  call void @llvm.lifetime.end.p0(i64 4, ptr %9) #12
  call void @llvm.lifetime.end.p0(i64 4, ptr %8) #12
  call void @llvm.lifetime.end.p0(i64 2048, ptr %7) #12
  ret void
}